target datalayout = "e-m:e-p270:32:32-p271:32:32-p272:64:64-i64:64-i128:128-f80:128-n8:16:32:64-S128"
target triple = "x86_64-pc-linux-gnu"

%struct.AVFilterContext = type { ptr, ptr, ptr, ptr, ptr, i32, ptr, ptr, i32, ptr, ptr, i32, i32, ptr, ptr, ptr, ptr, i32, ptr, i32, i32 }
%struct.DCTdnoizContext = type { ptr, ptr, [8 x ptr], [8 x [1 x double]], i32, i32, i32, float, float, [2 x [3 x ptr]], [8 x ptr], ptr, i32, i32, i32, i32, i32, ptr, ptr, ptr }
%struct.ThreadData = type { ptr, ptr }
%struct.AVFilterLink = type { ptr, ptr, ptr, ptr, i32, i32, i32, i32, %struct.AVRational, i32, i32, i32, %struct.AVChannelLayout, %struct.AVRational, ptr, i32, %struct.AVFilterFormatsConfig, %struct.AVFilterFormatsConfig }
%struct.AVChannelLayout = type { i32, i32, %union.anon.1, ptr }
%union.anon.1 = type { i64 }
%struct.AVRational = type { i32, i32 }
%struct.AVFilterFormatsConfig = type { ptr, ptr, ptr, ptr, ptr }
%struct.AVFrame = type { [8 x ptr], [8 x i32], ptr, i32, i32, i32, i32, i32, %struct.AVRational, i64, i64, %struct.AVRational, i32, ptr, i32, i32, [8 x ptr], ptr, i32, ptr, i32, i32, i32, i32, i32, i32, i32, i64, ptr, i32, ptr, ptr, i64, i64, i64, i64, ptr, %struct.AVChannelLayout, i64 }

; Function Attrs: nounwind uwtable
define internal i32 @filter_frame(ptr noundef %0, ptr noundef %1) #1 {
  %3 = alloca i32, align 4
  %4 = alloca ptr, align 8
  %5 = alloca ptr, align 8
  %6 = alloca ptr, align 8
  %7 = alloca ptr, align 8
  %8 = alloca ptr, align 8
  %9 = alloca i32, align 4
  %10 = alloca i32, align 4
  %11 = alloca ptr, align 8
  %12 = alloca i32, align 4
  %13 = alloca %struct.ThreadData, align 8
  %14 = alloca i32, align 4
  %15 = alloca ptr, align 8
  %16 = alloca ptr, align 8
  %17 = alloca i32, align 4
  %18 = alloca i32, align 4
  %19 = alloca i32, align 4
  %20 = alloca i32, align 4
  %21 = alloca ptr, align 8
  %22 = alloca ptr, align 8
  %23 = alloca ptr, align 8
  %24 = alloca ptr, align 8
  store ptr %0, ptr %4, align 8, !tbaa !42
  store ptr %1, ptr %5, align 8, !tbaa !44
  call void @llvm.lifetime.start.p0(i64 8, ptr %6) #11
  %25 = load ptr, ptr %4, align 8, !tbaa !42
  %26 = getelementptr inbounds nuw %struct.AVFilterLink, ptr %25, i32 0, i32 2
  %27 = load ptr, ptr %26, align 8, !tbaa !46
  store ptr %27, ptr %6, align 8, !tbaa !4
  call void @llvm.lifetime.start.p0(i64 8, ptr %7) #11
  %28 = load ptr, ptr %6, align 8, !tbaa !4
  %29 = getelementptr inbounds nuw %struct.AVFilterContext, ptr %28, i32 0, i32 9
  %30 = load ptr, ptr %29, align 8, !tbaa !9
  store ptr %30, ptr %7, align 8, !tbaa !22
  call void @llvm.lifetime.start.p0(i64 8, ptr %8) #11
  %31 = load ptr, ptr %4, align 8, !tbaa !42
  %32 = getelementptr inbounds nuw %struct.AVFilterLink, ptr %31, i32 0, i32 2
  %33 = load ptr, ptr %32, align 8, !tbaa !46
  %34 = getelementptr inbounds nuw %struct.AVFilterContext, ptr %33, i32 0, i32 7
  %35 = load ptr, ptr %34, align 8, !tbaa !54
  %36 = getelementptr inbounds ptr, ptr %35, i64 0
  %37 = load ptr, ptr %36, align 8, !tbaa !42
  store ptr %37, ptr %8, align 8, !tbaa !42
  call void @llvm.lifetime.start.p0(i64 4, ptr %9) #11
  call void @llvm.lifetime.start.p0(i64 4, ptr %10) #11
  call void @llvm.lifetime.start.p0(i64 8, ptr %11) #11
  %38 = load ptr, ptr %5, align 8, !tbaa !44
  %39 = call i32 @av_frame_is_writable(ptr noundef %38)
  %40 = icmp ne i32 %39, 0
  br i1 %40, label %41, label %43

41:                                               ; preds = %2
  store i32 1, ptr %9, align 4, !tbaa !35
  %42 = load ptr, ptr %5, align 8, !tbaa !44
  store ptr %42, ptr %11, align 8, !tbaa !44
  br label %59

43:                                               ; preds = %2
  store i32 0, ptr %9, align 4, !tbaa !35
  %44 = load ptr, ptr %8, align 8, !tbaa !42
  %45 = load ptr, ptr %8, align 8, !tbaa !42
  %46 = getelementptr inbounds nuw %struct.AVFilterLink, ptr %45, i32 0, i32 6
  %47 = load i32, ptr %46, align 8, !tbaa !55
  %48 = load ptr, ptr %8, align 8, !tbaa !42
  %49 = getelementptr inbounds nuw %struct.AVFilterLink, ptr %48, i32 0, i32 7
  %50 = load i32, ptr %49, align 4, !tbaa !56
  %51 = call ptr @ff_get_video_buffer(ptr noundef %44, i32 noundef %47, i32 noundef %50)
  store ptr %51, ptr %11, align 8, !tbaa !44
  %52 = load ptr, ptr %11, align 8, !tbaa !44
  %53 = icmp ne ptr %52, null
  br i1 %53, label %55, label %54

54:                                               ; preds = %43
  call void @av_frame_free(ptr noundef %5)
  store i32 -12, ptr %3, align 4
  store i32 1, ptr %12, align 4
  br label %258

55:                                               ; preds = %43
  %56 = load ptr, ptr %11, align 8, !tbaa !44
  %57 = load ptr, ptr %5, align 8, !tbaa !44
  %58 = call i32 @av_frame_copy_props(ptr noundef %56, ptr noundef %57)
  br label %59

59:                                               ; preds = %55, %41
  %60 = load ptr, ptr %7, align 8, !tbaa !22
  %61 = getelementptr inbounds nuw %struct.DCTdnoizContext, ptr %60, i32 0, i32 18
  %62 = load ptr, ptr %61, align 8, !tbaa !57
  %63 = load ptr, ptr %7, align 8, !tbaa !22
  %64 = getelementptr inbounds nuw %struct.DCTdnoizContext, ptr %63, i32 0, i32 9
  %65 = getelementptr inbounds [2 x [3 x ptr]], ptr %64, i64 0, i64 0
  %66 = getelementptr inbounds [3 x ptr], ptr %65, i64 0, i64 0
  %67 = load ptr, ptr %7, align 8, !tbaa !22
  %68 = getelementptr inbounds nuw %struct.DCTdnoizContext, ptr %67, i32 0, i32 12
  %69 = load i32, ptr %68, align 8, !tbaa !58
  %70 = load ptr, ptr %5, align 8, !tbaa !44
  %71 = getelementptr inbounds nuw %struct.AVFrame, ptr %70, i32 0, i32 0
  %72 = getelementptr inbounds [8 x ptr], ptr %71, i64 0, i64 0
  %73 = load ptr, ptr %5, align 8, !tbaa !44
  %74 = getelementptr inbounds nuw %struct.AVFrame, ptr %73, i32 0, i32 1
  %75 = getelementptr inbounds [8 x i32], ptr %74, i64 0, i64 0
  %76 = load i32, ptr %75, align 8, !tbaa !35
  %77 = load ptr, ptr %7, align 8, !tbaa !22
  %78 = getelementptr inbounds nuw %struct.DCTdnoizContext, ptr %77, i32 0, i32 5
  %79 = load i32, ptr %78, align 4, !tbaa !59
  %80 = load ptr, ptr %7, align 8, !tbaa !22
  %81 = getelementptr inbounds nuw %struct.DCTdnoizContext, ptr %80, i32 0, i32 6
  %82 = load i32, ptr %81, align 8, !tbaa !60
  call void %62(ptr noundef %66, i32 noundef %69, ptr noundef %72, i32 noundef %76, i32 noundef %79, i32 noundef %82)
  store i32 0, ptr %10, align 4, !tbaa !35
  br label %83

83:                                               ; preds = %108, %59
  %84 = load i32, ptr %10, align 4, !tbaa !35
  %85 = icmp slt i32 %84, 3
  br i1 %85, label %86, label %111

86:                                               ; preds = %83
  call void @llvm.lifetime.start.p0(i64 16, ptr %13) #11
  %87 = getelementptr inbounds nuw %struct.ThreadData, ptr %13, i32 0, i32 0
  %88 = load ptr, ptr %7, align 8, !tbaa !22
  %89 = getelementptr inbounds nuw %struct.DCTdnoizContext, ptr %88, i32 0, i32 9
  %90 = getelementptr inbounds [2 x [3 x ptr]], ptr %89, i64 0, i64 0
  %91 = load i32, ptr %10, align 4, !tbaa !35
  %92 = sext i32 %91 to i64
  %93 = getelementptr inbounds [3 x ptr], ptr %90, i64 0, i64 %92
  %94 = load ptr, ptr %93, align 8, !tbaa !61
  store ptr %94, ptr %87, align 8, !tbaa !62
  %95 = getelementptr inbounds nuw %struct.ThreadData, ptr %13, i32 0, i32 1
  %96 = load ptr, ptr %7, align 8, !tbaa !22
  %97 = getelementptr inbounds nuw %struct.DCTdnoizContext, ptr %96, i32 0, i32 9
  %98 = getelementptr inbounds [2 x [3 x ptr]], ptr %97, i64 0, i64 1
  %99 = load i32, ptr %10, align 4, !tbaa !35
  %100 = sext i32 %99 to i64
  %101 = getelementptr inbounds [3 x ptr], ptr %98, i64 0, i64 %100
  %102 = load ptr, ptr %101, align 8, !tbaa !61
  store ptr %102, ptr %95, align 8, !tbaa !64
  %103 = load ptr, ptr %6, align 8, !tbaa !4
  %104 = load ptr, ptr %7, align 8, !tbaa !22
  %105 = getelementptr inbounds nuw %struct.DCTdnoizContext, ptr %104, i32 0, i32 4
  %106 = load i32, ptr %105, align 8, !tbaa !38
  %107 = call i32 @ff_filter_execute(ptr noundef %103, ptr noundef @filter_slice, ptr noundef %13, ptr noundef null, i32 noundef %106)
  call void @llvm.lifetime.end.p0(i64 16, ptr %13) #11
  br label %108

108:                                              ; preds = %86
  %109 = load i32, ptr %10, align 4, !tbaa !35
  %110 = add nsw i32 %109, 1
  store i32 %110, ptr %10, align 4, !tbaa !35
  br label %83, !llvm.loop !65

111:                                              ; preds = %83
  %112 = load ptr, ptr %7, align 8, !tbaa !22
  %113 = getelementptr inbounds nuw %struct.DCTdnoizContext, ptr %112, i32 0, i32 19
  %114 = load ptr, ptr %113, align 8, !tbaa !66
  %115 = load ptr, ptr %11, align 8, !tbaa !44
  %116 = getelementptr inbounds nuw %struct.AVFrame, ptr %115, i32 0, i32 0
  %117 = getelementptr inbounds [8 x ptr], ptr %116, i64 0, i64 0
  %118 = load ptr, ptr %11, align 8, !tbaa !44
  %119 = getelementptr inbounds nuw %struct.AVFrame, ptr %118, i32 0, i32 1
  %120 = getelementptr inbounds [8 x i32], ptr %119, i64 0, i64 0
  %121 = load i32, ptr %120, align 8, !tbaa !35
  %122 = load ptr, ptr %7, align 8, !tbaa !22
  %123 = getelementptr inbounds nuw %struct.DCTdnoizContext, ptr %122, i32 0, i32 9
  %124 = getelementptr inbounds [2 x [3 x ptr]], ptr %123, i64 0, i64 1
  %125 = getelementptr inbounds [3 x ptr], ptr %124, i64 0, i64 0
  %126 = load ptr, ptr %7, align 8, !tbaa !22
  %127 = getelementptr inbounds nuw %struct.DCTdnoizContext, ptr %126, i32 0, i32 12
  %128 = load i32, ptr %127, align 8, !tbaa !58
  %129 = load ptr, ptr %7, align 8, !tbaa !22
  %130 = getelementptr inbounds nuw %struct.DCTdnoizContext, ptr %129, i32 0, i32 5
  %131 = load i32, ptr %130, align 4, !tbaa !59
  %132 = load ptr, ptr %7, align 8, !tbaa !22
  %133 = getelementptr inbounds nuw %struct.DCTdnoizContext, ptr %132, i32 0, i32 6
  %134 = load i32, ptr %133, align 8, !tbaa !60
  call void %114(ptr noundef %117, i32 noundef %121, ptr noundef %125, i32 noundef %128, i32 noundef %131, i32 noundef %134)
  %135 = load i32, ptr %9, align 4, !tbaa !35
  %136 = icmp ne i32 %135, 0
  br i1 %136, label %254, label %137

137:                                              ; preds = %111
  call void @llvm.lifetime.start.p0(i64 4, ptr %14) #11
  call void @llvm.lifetime.start.p0(i64 8, ptr %15) #11
  %138 = load ptr, ptr %11, align 8, !tbaa !44
  %139 = getelementptr inbounds nuw %struct.AVFrame, ptr %138, i32 0, i32 0
  %140 = getelementptr inbounds [8 x ptr], ptr %139, i64 0, i64 0
  %141 = load ptr, ptr %140, align 8, !tbaa !67
  store ptr %141, ptr %15, align 8, !tbaa !67
  call void @llvm.lifetime.start.p0(i64 8, ptr %16) #11
  %142 = load ptr, ptr %5, align 8, !tbaa !44
  %143 = getelementptr inbounds nuw %struct.AVFrame, ptr %142, i32 0, i32 0
  %144 = getelementptr inbounds [8 x ptr], ptr %143, i64 0, i64 0
  %145 = load ptr, ptr %144, align 8, !tbaa !67
  store ptr %145, ptr %16, align 8, !tbaa !67
  call void @llvm.lifetime.start.p0(i64 4, ptr %17) #11
  %146 = load ptr, ptr %11, align 8, !tbaa !44
  %147 = getelementptr inbounds nuw %struct.AVFrame, ptr %146, i32 0, i32 1
  %148 = getelementptr inbounds [8 x i32], ptr %147, i64 0, i64 0
  %149 = load i32, ptr %148, align 8, !tbaa !35
  store i32 %149, ptr %17, align 4, !tbaa !35
  call void @llvm.lifetime.start.p0(i64 4, ptr %18) #11
  %150 = load ptr, ptr %5, align 8, !tbaa !44
  %151 = getelementptr inbounds nuw %struct.AVFrame, ptr %150, i32 0, i32 1
  %152 = getelementptr inbounds [8 x i32], ptr %151, i64 0, i64 0
  %153 = load i32, ptr %152, align 8, !tbaa !35
  store i32 %153, ptr %18, align 4, !tbaa !35
  call void @llvm.lifetime.start.p0(i64 4, ptr %19) #11
  %154 = load ptr, ptr %4, align 8, !tbaa !42
  %155 = getelementptr inbounds nuw %struct.AVFilterLink, ptr %154, i32 0, i32 6
  %156 = load i32, ptr %155, align 8, !tbaa !55
  %157 = load ptr, ptr %7, align 8, !tbaa !22
  %158 = getelementptr inbounds nuw %struct.DCTdnoizContext, ptr %157, i32 0, i32 5
  %159 = load i32, ptr %158, align 4, !tbaa !59
  %160 = sub nsw i32 %156, %159
  %161 = mul nsw i32 %160, 3
  store i32 %161, ptr %19, align 4, !tbaa !35
  call void @llvm.lifetime.start.p0(i64 4, ptr %20) #11
  %162 = load ptr, ptr %4, align 8, !tbaa !42
  %163 = getelementptr inbounds nuw %struct.AVFilterLink, ptr %162, i32 0, i32 7
  %164 = load i32, ptr %163, align 4, !tbaa !56
  %165 = load ptr, ptr %7, align 8, !tbaa !22
  %166 = getelementptr inbounds nuw %struct.DCTdnoizContext, ptr %165, i32 0, i32 6
  %167 = load i32, ptr %166, align 8, !tbaa !60
  %168 = sub nsw i32 %164, %167
  store i32 %168, ptr %20, align 4, !tbaa !35
  %169 = load i32, ptr %19, align 4, !tbaa !35
  %170 = icmp ne i32 %169, 0
  br i1 %170, label %171, label %209

171:                                              ; preds = %137
  call void @llvm.lifetime.start.p0(i64 8, ptr %21) #11
  %172 = load ptr, ptr %15, align 8, !tbaa !67
  %173 = load ptr, ptr %7, align 8, !tbaa !22
  %174 = getelementptr inbounds nuw %struct.DCTdnoizContext, ptr %173, i32 0, i32 5
  %175 = load i32, ptr %174, align 4, !tbaa !59
  %176 = mul nsw i32 %175, 3
  %177 = sext i32 %176 to i64
  %178 = getelementptr inbounds i8, ptr %172, i64 %177
  store ptr %178, ptr %21, align 8, !tbaa !67
  call void @llvm.lifetime.start.p0(i64 8, ptr %22) #11
  %179 = load ptr, ptr %16, align 8, !tbaa !67
  %180 = load ptr, ptr %7, align 8, !tbaa !22
  %181 = getelementptr inbounds nuw %struct.DCTdnoizContext, ptr %180, i32 0, i32 5
  %182 = load i32, ptr %181, align 4, !tbaa !59
  %183 = mul nsw i32 %182, 3
  %184 = sext i32 %183 to i64
  %185 = getelementptr inbounds i8, ptr %179, i64 %184
  store ptr %185, ptr %22, align 8, !tbaa !67
  store i32 0, ptr %14, align 4, !tbaa !35
  br label %186

186:                                              ; preds = %205, %171
  %187 = load i32, ptr %14, align 4, !tbaa !35
  %188 = load ptr, ptr %7, align 8, !tbaa !22
  %189 = getelementptr inbounds nuw %struct.DCTdnoizContext, ptr %188, i32 0, i32 6
  %190 = load i32, ptr %189, align 8, !tbaa !60
  %191 = icmp slt i32 %187, %190
  br i1 %191, label %192, label %208

192:                                              ; preds = %186
  %193 = load ptr, ptr %21, align 8, !tbaa !67
  %194 = load ptr, ptr %22, align 8, !tbaa !67
  %195 = load i32, ptr %19, align 4, !tbaa !35
  %196 = sext i32 %195 to i64
  call void @llvm.memcpy.p0.p0.i64(ptr align 1 %193, ptr align 1 %194, i64 %196, i1 false)
  %197 = load i32, ptr %17, align 4, !tbaa !35
  %198 = load ptr, ptr %21, align 8, !tbaa !67
  %199 = sext i32 %197 to i64
  %200 = getelementptr inbounds i8, ptr %198, i64 %199
  store ptr %200, ptr %21, align 8, !tbaa !67
  %201 = load i32, ptr %18, align 4, !tbaa !35
  %202 = load ptr, ptr %22, align 8, !tbaa !67
  %203 = sext i32 %201 to i64
  %204 = getelementptr inbounds i8, ptr %202, i64 %203
  store ptr %204, ptr %22, align 8, !tbaa !67
  br label %205

205:                                              ; preds = %192
  %206 = load i32, ptr %14, align 4, !tbaa !35
  %207 = add nsw i32 %206, 1
  store i32 %207, ptr %14, align 4, !tbaa !35
  br label %186, !llvm.loop !68

208:                                              ; preds = %186
  call void @llvm.lifetime.end.p0(i64 8, ptr %22) #11
  call void @llvm.lifetime.end.p0(i64 8, ptr %21) #11
  br label %209

209:                                              ; preds = %208, %137
  %210 = load i32, ptr %20, align 4, !tbaa !35
  %211 = icmp ne i32 %210, 0
  br i1 %211, label %212, label %253

212:                                              ; preds = %209
  call void @llvm.lifetime.start.p0(i64 8, ptr %23) #11
  %213 = load ptr, ptr %15, align 8, !tbaa !67
  %214 = load ptr, ptr %7, align 8, !tbaa !22
  %215 = getelementptr inbounds nuw %struct.DCTdnoizContext, ptr %214, i32 0, i32 6
  %216 = load i32, ptr %215, align 8, !tbaa !60
  %217 = load i32, ptr %17, align 4, !tbaa !35
  %218 = mul nsw i32 %216, %217
  %219 = sext i32 %218 to i64
  %220 = getelementptr inbounds i8, ptr %213, i64 %219
  store ptr %220, ptr %23, align 8, !tbaa !67
  call void @llvm.lifetime.start.p0(i64 8, ptr %24) #11
  %221 = load ptr, ptr %16, align 8, !tbaa !67
  %222 = load ptr, ptr %7, align 8, !tbaa !22
  %223 = getelementptr inbounds nuw %struct.DCTdnoizContext, ptr %222, i32 0, i32 6
  %224 = load i32, ptr %223, align 8, !tbaa !60
  %225 = load i32, ptr %18, align 4, !tbaa !35
  %226 = mul nsw i32 %224, %225
  %227 = sext i32 %226 to i64
  %228 = getelementptr inbounds i8, ptr %221, i64 %227
  store ptr %228, ptr %24, align 8, !tbaa !67
  store i32 0, ptr %14, align 4, !tbaa !35
  br label %229

229:                                              ; preds = %249, %212
  %230 = load i32, ptr %14, align 4, !tbaa !35
  %231 = load i32, ptr %20, align 4, !tbaa !35
  %232 = icmp slt i32 %230, %231
  br i1 %232, label %233, label %252

233:                                              ; preds = %229
  %234 = load ptr, ptr %23, align 8, !tbaa !67
  %235 = load ptr, ptr %24, align 8, !tbaa !67
  %236 = load ptr, ptr %4, align 8, !tbaa !42
  %237 = getelementptr inbounds nuw %struct.AVFilterLink, ptr %236, i32 0, i32 6
  %238 = load i32, ptr %237, align 8, !tbaa !55
  %239 = mul nsw i32 %238, 3
  %240 = sext i32 %239 to i64
  call void @llvm.memcpy.p0.p0.i64(ptr align 1 %234, ptr align 1 %235, i64 %240, i1 false)
  %241 = load i32, ptr %17, align 4, !tbaa !35
  %242 = load ptr, ptr %23, align 8, !tbaa !67
  %243 = sext i32 %241 to i64
  %244 = getelementptr inbounds i8, ptr %242, i64 %243
  store ptr %244, ptr %23, align 8, !tbaa !67
  %245 = load i32, ptr %18, align 4, !tbaa !35
  %246 = load ptr, ptr %24, align 8, !tbaa !67
  %247 = sext i32 %245 to i64
  %248 = getelementptr inbounds i8, ptr %246, i64 %247
  store ptr %248, ptr %24, align 8, !tbaa !67
  br label %249

249:                                              ; preds = %233
  %250 = load i32, ptr %14, align 4, !tbaa !35
  %251 = add nsw i32 %250, 1
  store i32 %251, ptr %14, align 4, !tbaa !35
  br label %229, !llvm.loop !69

252:                                              ; preds = %229
  call void @llvm.lifetime.end.p0(i64 8, ptr %24) #11
  call void @llvm.lifetime.end.p0(i64 8, ptr %23) #11
  br label %253

253:                                              ; preds = %252, %209
  call void @av_frame_free(ptr noundef %5)
  call void @llvm.lifetime.end.p0(i64 4, ptr %20) #11
  call void @llvm.lifetime.end.p0(i64 4, ptr %19) #11
  call void @llvm.lifetime.end.p0(i64 4, ptr %18) #11
  call void @llvm.lifetime.end.p0(i64 4, ptr %17) #11
  call void @llvm.lifetime.end.p0(i64 8, ptr %16) #11
  call void @llvm.lifetime.end.p0(i64 8, ptr %15) #11
  call void @llvm.lifetime.end.p0(i64 4, ptr %14) #11
  br label %254

254:                                              ; preds = %253, %111
  %255 = load ptr, ptr %8, align 8, !tbaa !42
  %256 = load ptr, ptr %11, align 8, !tbaa !44
  %257 = call i32 @ff_filter_frame(ptr noundef %255, ptr noundef %256)
  store i32 %257, ptr %3, align 4
  store i32 1, ptr %12, align 4
  br label %258

258:                                              ; preds = %254, %54
  call void @llvm.lifetime.end.p0(i64 8, ptr %11) #11
  call void @llvm.lifetime.end.p0(i64 4, ptr %10) #11
  call void @llvm.lifetime.end.p0(i64 4, ptr %9) #11
  call void @llvm.lifetime.end.p0(i64 8, ptr %8) #11
  call void @llvm.lifetime.end.p0(i64 8, ptr %7) #11
  call void @llvm.lifetime.end.p0(i64 8, ptr %6) #11
  %259 = load i32, ptr %3, align 4
  ret i32 %259
}