; Function Attrs: nounwind uwtable
define internal i32 @filter_frame(ptr noundef readonly captures(none) %0, ptr noundef %1) #1 {
  %3 = alloca ptr, align 8
  %4 = alloca %struct.ThreadData, align 8
  store ptr %1, ptr %3, align 8, !tbaa !36
  %5 = getelementptr inbounds nuw i8, ptr %0, i64 16
  %6 = load ptr, ptr %5, align 8, !tbaa !38
  %7 = getelementptr inbounds nuw i8, ptr %6, i64 72
  %8 = load ptr, ptr %7, align 8, !tbaa !4
  %9 = getelementptr inbounds nuw i8, ptr %6, i64 56
  %10 = load ptr, ptr %9, align 8, !tbaa !47
  %11 = load ptr, ptr %10, align 8, !tbaa !48
  %12 = tail call i32 @av_frame_is_writable(ptr noundef %1) #13
  %.not = icmp eq i32 %12, 0
  br i1 %.not, label %13, label %22

13:                                               ; preds = %2
  %14 = getelementptr inbounds nuw i8, ptr %11, i64 40
  %15 = load i32, ptr %14, align 8, !tbaa !50
  %16 = getelementptr inbounds nuw i8, ptr %11, i64 44
  %17 = load i32, ptr %16, align 4, !tbaa !51
  %18 = tail call ptr @ff_get_video_buffer(ptr noundef %11, i32 noundef %15, i32 noundef %17) #13
  %.not80 = icmp eq ptr %18, null
  br i1 %.not80, label %19, label %20

19:                                               ; preds = %13
  call void @av_frame_free(ptr noundef nonnull %3) #13
  br label %101

20:                                               ; preds = %13
  %21 = tail call i32 @av_frame_copy_props(ptr noundef nonnull %18, ptr noundef %1) #13
  br label %22

22:                                               ; preds = %2, %20
  %.075 = phi ptr [ %18, %20 ], [ %1, %2 ]
  %23 = getelementptr inbounds nuw i8, ptr %8, i64 320
  %24 = load ptr, ptr %23, align 8, !tbaa !52
  %25 = getelementptr inbounds nuw i8, ptr %8, i64 168
  %26 = getelementptr inbounds nuw i8, ptr %8, i64 288
  %27 = load i32, ptr %26, align 8, !tbaa !53
  %28 = getelementptr inbounds nuw i8, ptr %1, i64 64
  %29 = load i32, ptr %28, align 8, !tbaa !54
  %30 = getelementptr inbounds nuw i8, ptr %8, i64 148
  %31 = load i32, ptr %30, align 4, !tbaa !55
  %32 = getelementptr inbounds nuw i8, ptr %8, i64 152
  %33 = load i32, ptr %32, align 8, !tbaa !56
  tail call void %24(ptr noundef nonnull %25, i32 noundef %27, ptr noundef %1, i32 noundef %29, i32 noundef %31, i32 noundef %33) #13
  %34 = getelementptr inbounds nuw i8, ptr %4, i64 8
  %35 = getelementptr inbounds nuw i8, ptr %8, i64 192
  %36 = getelementptr inbounds nuw i8, ptr %8, i64 144
  br label %37

37:                                               ; preds = %22, %37
  %indvars.iv = phi i64 [ 0, %22 ], [ %indvars.iv.next, %37 ]
  call void @llvm.lifetime.start.p0(i64 16, ptr nonnull %4) #13
  %38 = getelementptr inbounds nuw [3 x ptr], ptr %25, i64 0, i64 %indvars.iv
  %39 = load ptr, ptr %38, align 8, !tbaa !57
  store ptr %39, ptr %4, align 8, !tbaa !58
  %40 = getelementptr inbounds nuw [3 x ptr], ptr %35, i64 0, i64 %indvars.iv
  %41 = load ptr, ptr %40, align 8, !tbaa !57
  store ptr %41, ptr %34, align 8, !tbaa !60
  %42 = load i32, ptr %36, align 8, !tbaa !31
  %43 = call i32 @ff_filter_execute(ptr noundef nonnull %6, ptr noundef nonnull @filter_slice, ptr noundef nonnull %4, ptr noundef null, i32 noundef %42) #13
  call void @llvm.lifetime.end.p0(i64 16, ptr nonnull %4) #13
  %indvars.iv.next = add nuw nsw i64 %indvars.iv, 1
  %exitcond.not = icmp eq i64 %indvars.iv.next, 3
  br i1 %exitcond.not, label %44, label %37, !llvm.loop !61

44:                                               ; preds = %37
  %45 = getelementptr inbounds nuw i8, ptr %8, i64 328
  %46 = load ptr, ptr %45, align 8, !tbaa !62
  %47 = getelementptr inbounds nuw i8, ptr %.075, i64 64
  %48 = load i32, ptr %47, align 8, !tbaa !54
  %49 = load i32, ptr %26, align 8, !tbaa !53
  %50 = load i32, ptr %30, align 4, !tbaa !55
  %51 = load i32, ptr %32, align 8, !tbaa !56
  call void %46(ptr noundef %.075, i32 noundef %48, ptr noundef nonnull %35, i32 noundef %49, i32 noundef %50, i32 noundef %51) #13
  br i1 %.not, label %52, label %99

52:                                               ; preds = %44
  %53 = load ptr, ptr %.075, align 8, !tbaa !63
  %54 = load ptr, ptr %3, align 8, !tbaa !36
  %55 = load ptr, ptr %54, align 8, !tbaa !63
  %56 = load i32, ptr %47, align 8, !tbaa !54
  %57 = getelementptr inbounds nuw i8, ptr %54, i64 64
  %58 = load i32, ptr %57, align 8, !tbaa !54
  %59 = getelementptr inbounds nuw i8, ptr %0, i64 40
  %60 = load i32, ptr %59, align 8, !tbaa !50
  %61 = load i32, ptr %30, align 4, !tbaa !55
  %62 = getelementptr inbounds nuw i8, ptr %0, i64 44
  %63 = load i32, ptr %62, align 4, !tbaa !51
  %64 = load i32, ptr %32, align 8, !tbaa !56
  %65 = sub i32 %63, %64
  %.not82 = icmp ne i32 %60, %61
  %66 = icmp sgt i32 %64, 0
  %or.cond = select i1 %.not82, i1 %66, i1 false
  br i1 %or.cond, label %.lr.ph, label %.loopexit84

.lr.ph:                                           ; preds = %52
  %67 = sub nsw i32 %60, %61
  %68 = mul nsw i32 %67, 3
  %69 = mul nsw i32 %61, 3
  %70 = sext i32 %69 to i64
  %71 = getelementptr inbounds i8, ptr %55, i64 %70
  %72 = getelementptr inbounds i8, ptr %53, i64 %70
  %73 = sext i32 %68 to i64
  %74 = sext i32 %56 to i64
  %75 = sext i32 %58 to i64
  br label %76

76:                                               ; preds = %.lr.ph, %76
  %.07088 = phi ptr [ %71, %.lr.ph ], [ %78, %76 ]
  %.07187 = phi ptr [ %72, %.lr.ph ], [ %77, %76 ]
  %.07686 = phi i32 [ 0, %.lr.ph ], [ %79, %76 ]
  call void @llvm.memcpy.p0.p0.i64(ptr align 1 %.07187, ptr align 1 %.07088, i64 %73, i1 false)
  %77 = getelementptr inbounds i8, ptr %.07187, i64 %74
  %78 = getelementptr inbounds i8, ptr %.07088, i64 %75
  %79 = add nuw nsw i32 %.07686, 1
  %80 = load i32, ptr %32, align 8, !tbaa !56
  %81 = icmp slt i32 %79, %80
  br i1 %81, label %76, label %.loopexit84, !llvm.loop !64

.loopexit84:                                      ; preds = %76, %52
  %82 = phi i32 [ %64, %52 ], [ %80, %76 ]
  %83 = icmp sgt i32 %65, 0
  br i1 %83, label %.lr.ph92, label %.loopexit

.lr.ph92:                                         ; preds = %.loopexit84
  %84 = mul nsw i32 %82, %58
  %85 = sext i32 %84 to i64
  %86 = getelementptr inbounds i8, ptr %55, i64 %85
  %87 = mul nsw i32 %82, %56
  %88 = sext i32 %87 to i64
  %89 = getelementptr inbounds i8, ptr %53, i64 %88
  %90 = sext i32 %56 to i64
  %91 = sext i32 %58 to i64
  br label %92

92:                                               ; preds = %.lr.ph92, %92
  %.091 = phi ptr [ %86, %.lr.ph92 ], [ %97, %92 ]
  %.06990 = phi ptr [ %89, %.lr.ph92 ], [ %96, %92 ]
  %.189 = phi i32 [ 0, %.lr.ph92 ], [ %98, %92 ]
  %93 = load i32, ptr %59, align 8, !tbaa !50
  %94 = mul nsw i32 %93, 3
  %95 = sext i32 %94 to i64
  call void @llvm.memcpy.p0.p0.i64(ptr align 1 %.06990, ptr align 1 %.091, i64 %95, i1 false)
  %96 = getelementptr inbounds i8, ptr %.06990, i64 %90
  %97 = getelementptr inbounds i8, ptr %.091, i64 %91
  %98 = add nuw nsw i32 %.189, 1
  %exitcond94.not = icmp eq i32 %98, %65
  br i1 %exitcond94.not, label %.loopexit, label %92, !llvm.loop !65

.loopexit:                                        ; preds = %92, %.loopexit84
  call void @av_frame_free(ptr noundef nonnull %3) #13
  br label %99

99:                                               ; preds = %.loopexit, %44
  %100 = call i32 @ff_filter_frame(ptr noundef %11, ptr noundef nonnull %.075) #13
  br label %101

101:                                              ; preds = %99, %19
  %.072 = phi i32 [ %100, %99 ], [ -12, %19 ]
  ret i32 %.072
}